target datalayout = "e-m:e-p270:32:32-p271:32:32-p272:64:64-i64:64-i128:128-f80:128-n8:16:32:64-S128"
target triple = "x86_64-pc-linux-gnu"

%"class.rocksdb::Customizable" = type { %"class.rocksdb::Configurable" }
%"class.rocksdb::Configurable" = type { ptr, %"class.std::vector.3" }
%"class.std::vector.3" = type { %"struct.std::_Vector_base.4" }
%"struct.std::_Vector_base.4" = type { %"struct.std::_Vector_base<rocksdb::Configurable::RegisteredOptions, std::allocator<rocksdb::Configurable::RegisteredOptions>>::_Vector_impl" }
%"struct.std::_Vector_base<rocksdb::Configurable::RegisteredOptions, std::allocator<rocksdb::Configurable::RegisteredOptions>>::_Vector_impl" = type { %"struct.std::_Vector_base<rocksdb::Configurable::RegisteredOptions, std::allocator<rocksdb::Configurable::RegisteredOptions>>::_Vector_impl_data" }
%"struct.std::_Vector_base<rocksdb::Configurable::RegisteredOptions, std::allocator<rocksdb::Configurable::RegisteredOptions>>::_Vector_impl_data" = type { ptr, ptr, ptr }
%"class.rocksdb::SystemClock" = type { %"class.rocksdb::Customizable" }
%"class.rocksdb::(anonymous namespace)::LegacySystemClock" = type { %"class.rocksdb::SystemClock", ptr }

; Function Attrs: mustprogress uwtable
define internal noundef i64 @_ZN7rocksdb12_GLOBAL__N_117LegacySystemClock8NowNanosEv(ptr noundef nonnull align 8 dereferenceable(40) %0) unnamed_addr #5 align 2 {
  %2 = alloca ptr, align 8
  store ptr %0, ptr %2, align 8, !tbaa !1159
  %3 = load ptr, ptr %2, align 8
  %4 = getelementptr inbounds nuw %"class.rocksdb::(anonymous namespace)::LegacySystemClock", ptr %3, i32 0, i32 1
  %5 = load ptr, ptr %4, align 8, !tbaa !1171
  %6 = load ptr, ptr %5, align 8, !tbaa !52
  %7 = getelementptr inbounds ptr, ptr %6, i64 56
  %8 = load ptr, ptr %7, align 8
  %9 = call noundef i64 %8(ptr noundef nonnull align 8 dereferenceable(72) %5)
  ret i64 %9
}